; Function Attrs: mustprogress uwtable
define void @_ZNK6google8protobuf10Reflection7AddEnumEPNS0_7MessageEPKNS0_15FieldDescriptorEPKNS0_19EnumValueDescriptorE(ptr noundef nonnull align 8 dereferenceable(112) %this, ptr noundef %message, ptr noundef nonnull %field, ptr nocapture noundef readonly %value) local_unnamed_addr #4 align 2 {
entry:
  %type_.i = getelementptr inbounds i8, ptr %value, i64 16
  %0 = load ptr, ptr %type_.i, align 8
  %call2 = tail call noundef ptr @_ZNK6google8protobuf15FieldDescriptor9enum_typeEv(ptr noundef nonnull align 8 dereferenceable(88) %field)
  %cmp.not = icmp eq ptr %0, %call2
  br i1 %cmp.not, label %if.end, label %if.then

if.then:                                          ; preds = %entry
  %1 = load ptr, ptr %this, align 8
  tail call fastcc void @_ZN6google8protobuf12_GLOBAL__N_134ReportReflectionUsageEnumTypeErrorEPKNS0_10DescriptorEPKNS0_15FieldDescriptorEPKcPKNS0_19EnumValueDescriptorE(ptr noundef %1, ptr noundef nonnull %field, ptr noundef nonnull @.str.68, ptr noundef nonnull %value)
  unreachable

if.end:                                           ; preds = %entry
  %number_.i = getelementptr inbounds i8, ptr %value, i64 4
  %2 = load i32, ptr %number_.i, align 4
  tail call void @_ZNK6google8protobuf10Reflection20AddEnumValueInternalEPNS0_7MessageEPKNS0_15FieldDescriptorEi(ptr noundef nonnull align 8 dereferenceable(112) %this, ptr noundef %message, ptr noundef nonnull %field, i32 noundef %2)
  ret void
}